target datalayout = "e-m:e-p270:32:32-p271:32:32-p272:64:64-i64:64-i128:128-f80:128-n8:16:32:64-S128"
target triple = "x86_64-pc-linux-gnu"

%struct.Extra_FileReader_t_ = type { ptr, ptr, i32, i32, [256 x i8], ptr, i32, ptr, ptr, ptr, ptr, ptr, i32, i32 }
%struct.Vec_Ptr_t_ = type { i32, i32, ptr }
%struct.Vec_Int_t_ = type { i32, i32, ptr }

@.str = private unnamed_addr constant [3 x i8] c"rb\00", align 1
@.str.1 = private unnamed_addr constant [55 x i8] c"Extra_FileReaderAlloc(): Cannot open input file \22%s\22.\0A\00", align 1

; Function Attrs: inlinehint nounwind uwtable
define internal ptr @Vec_IntAlloc(i32 noundef %0) #5 {
  %2 = alloca i32, align 4
  %3 = alloca ptr, align 8
  store i32 %0, ptr %2, align 4, !tbaa !27
  call void @llvm.lifetime.start.p0(i64 8, ptr %3) #9
  %4 = call noalias ptr @malloc(i64 noundef 16) #10
  store ptr %4, ptr %3, align 8, !tbaa !39
  %5 = load i32, ptr %2, align 4, !tbaa !27
  %6 = icmp sgt i32 %5, 0
  br i1 %6, label %7, label %11

7:                                                ; preds = %1
  %8 = load i32, ptr %2, align 4, !tbaa !27
  %9 = icmp slt i32 %8, 16
  br i1 %9, label %10, label %11

10:                                               ; preds = %7
  store i32 16, ptr %2, align 4, !tbaa !27
  br label %11

11:                                               ; preds = %10, %7, %1
  %12 = load ptr, ptr %3, align 8, !tbaa !39
  %13 = getelementptr inbounds nuw %struct.Vec_Int_t_, ptr %12, i32 0, i32 1
  store i32 0, ptr %13, align 4, !tbaa !40
  %14 = load i32, ptr %2, align 4, !tbaa !27
  %15 = load ptr, ptr %3, align 8, !tbaa !39
  %16 = getelementptr inbounds nuw %struct.Vec_Int_t_, ptr %15, i32 0, i32 0
  store i32 %14, ptr %16, align 8, !tbaa !43
  %17 = load ptr, ptr %3, align 8, !tbaa !39
  %18 = getelementptr inbounds nuw %struct.Vec_Int_t_, ptr %17, i32 0, i32 0
  %19 = load i32, ptr %18, align 8, !tbaa !43
  %20 = icmp ne i32 %19, 0
  br i1 %20, label %21, label %28

21:                                               ; preds = %11
  %22 = load ptr, ptr %3, align 8, !tbaa !39
  %23 = getelementptr inbounds nuw %struct.Vec_Int_t_, ptr %22, i32 0, i32 0
  %24 = load i32, ptr %23, align 8, !tbaa !43
  %25 = sext i32 %24 to i64
  %26 = mul i64 4, %25
  %27 = call noalias ptr @malloc(i64 noundef %26) #10
  br label %29

28:                                               ; preds = %11
  br label %29

29:                                               ; preds = %28, %21
  %30 = phi ptr [ %27, %21 ], [ null, %28 ]
  %31 = load ptr, ptr %3, align 8, !tbaa !39
  %32 = getelementptr inbounds nuw %struct.Vec_Int_t_, ptr %31, i32 0, i32 2
  store ptr %30, ptr %32, align 8, !tbaa !44
  %33 = load ptr, ptr %3, align 8, !tbaa !39
  call void @llvm.lifetime.end.p0(i64 8, ptr %3) #9
  ret ptr %33
}

; Function Attrs: inlinehint nounwind uwtable
define internal ptr @Vec_PtrAlloc(i32 noundef %0) #5 {
  %2 = alloca i32, align 4
  %3 = alloca ptr, align 8
  store i32 %0, ptr %2, align 4, !tbaa !27
  call void @llvm.lifetime.start.p0(i64 8, ptr %3) #9
  %4 = call noalias ptr @malloc(i64 noundef 16) #10
  store ptr %4, ptr %3, align 8, !tbaa !34
  %5 = load i32, ptr %2, align 4, !tbaa !27
  %6 = icmp sgt i32 %5, 0
  br i1 %6, label %7, label %11

7:                                                ; preds = %1
  %8 = load i32, ptr %2, align 4, !tbaa !27
  %9 = icmp slt i32 %8, 8
  br i1 %9, label %10, label %11

10:                                               ; preds = %7
  store i32 8, ptr %2, align 4, !tbaa !27
  br label %11

11:                                               ; preds = %10, %7, %1
  %12 = load ptr, ptr %3, align 8, !tbaa !34
  %13 = getelementptr inbounds nuw %struct.Vec_Ptr_t_, ptr %12, i32 0, i32 1
  store i32 0, ptr %13, align 4, !tbaa !35
  %14 = load i32, ptr %2, align 4, !tbaa !27
  %15 = load ptr, ptr %3, align 8, !tbaa !34
  %16 = getelementptr inbounds nuw %struct.Vec_Ptr_t_, ptr %15, i32 0, i32 0
  store i32 %14, ptr %16, align 8, !tbaa !37
  %17 = load ptr, ptr %3, align 8, !tbaa !34
  %18 = getelementptr inbounds nuw %struct.Vec_Ptr_t_, ptr %17, i32 0, i32 0
  %19 = load i32, ptr %18, align 8, !tbaa !37
  %20 = icmp ne i32 %19, 0
  br i1 %20, label %21, label %28

21:                                               ; preds = %11
  %22 = load ptr, ptr %3, align 8, !tbaa !34
  %23 = getelementptr inbounds nuw %struct.Vec_Ptr_t_, ptr %22, i32 0, i32 0
  %24 = load i32, ptr %23, align 8, !tbaa !37
  %25 = sext i32 %24 to i64
  %26 = mul i64 8, %25
  %27 = call noalias ptr @malloc(i64 noundef %26) #10
  br label %29

28:                                               ; preds = %11
  br label %29

29:                                               ; preds = %28, %21
  %30 = phi ptr [ %27, %21 ], [ null, %28 ]
  %31 = load ptr, ptr %3, align 8, !tbaa !34
  %32 = getelementptr inbounds nuw %struct.Vec_Ptr_t_, ptr %31, i32 0, i32 2
  store ptr %30, ptr %32, align 8, !tbaa !38
  %33 = load ptr, ptr %3, align 8, !tbaa !34
  call void @llvm.lifetime.end.p0(i64 8, ptr %3) #9
  ret ptr %33
}

; Function Attrs: nounwind uwtable
define ptr @Extra_FileReaderAlloc(ptr noundef %0, ptr noundef %1, ptr noundef %2, ptr noundef %3) #0 {
  %5 = alloca ptr, align 8
  %6 = alloca ptr, align 8
  %7 = alloca ptr, align 8
  %8 = alloca ptr, align 8
  %9 = alloca ptr, align 8
  %10 = alloca ptr, align 8
  %11 = alloca ptr, align 8
  %12 = alloca ptr, align 8
  %13 = alloca i32, align 4
  %14 = alloca i32, align 4
  %15 = alloca i32, align 4
  store ptr %0, ptr %6, align 8, !tbaa !3
  store ptr %1, ptr %7, align 8, !tbaa !3
  store ptr %2, ptr %8, align 8, !tbaa !3
  store ptr %3, ptr %9, align 8, !tbaa !3
  call void @llvm.lifetime.start.p0(i64 8, ptr %10) #9
  call void @llvm.lifetime.start.p0(i64 8, ptr %11) #9
  call void @llvm.lifetime.start.p0(i64 8, ptr %12) #9
  call void @llvm.lifetime.start.p0(i64 4, ptr %13) #9
  call void @llvm.lifetime.start.p0(i64 4, ptr %14) #9
  %16 = load ptr, ptr %6, align 8, !tbaa !3
  %17 = call noalias ptr @fopen(ptr noundef %16, ptr noundef @.str)
  store ptr %17, ptr %11, align 8, !tbaa !8
  %18 = load ptr, ptr %11, align 8, !tbaa !8
  %19 = icmp eq ptr %18, null
  br i1 %19, label %20, label %23

20:                                               ; preds = %4
  %21 = load ptr, ptr %6, align 8, !tbaa !3
  %22 = call i32 (ptr, ...) @printf(ptr noundef @.str.1, ptr noundef %21)
  store ptr null, ptr %5, align 8
  store i32 1, ptr %15, align 4
  br label %163

23:                                               ; preds = %4
  %24 = call noalias ptr @malloc(i64 noundef 344) #10
  store ptr %24, ptr %10, align 8, !tbaa !10
  %25 = load ptr, ptr %10, align 8, !tbaa !10
  call void @llvm.memset.p0.i64(ptr align 8 %25, i8 0, i64 344, i1 false)
  %26 = load ptr, ptr %6, align 8, !tbaa !3
  %27 = load ptr, ptr %10, align 8, !tbaa !10
  %28 = getelementptr inbounds nuw %struct.Extra_FileReader_t_, ptr %27, i32 0, i32 0
  store ptr %26, ptr %28, align 8, !tbaa !12
  %29 = load ptr, ptr %11, align 8, !tbaa !8
  %30 = load ptr, ptr %10, align 8, !tbaa !10
  %31 = getelementptr inbounds nuw %struct.Extra_FileReader_t_, ptr %30, i32 0, i32 1
  store ptr %29, ptr %31, align 8, !tbaa !17
  %32 = load ptr, ptr %10, align 8, !tbaa !10
  %33 = getelementptr inbounds nuw %struct.Extra_FileReader_t_, ptr %32, i32 0, i32 4
  %34 = getelementptr inbounds [256 x i8], ptr %33, i64 0, i64 0
  call void @llvm.memset.p0.i64(ptr align 8 %34, i8 1, i64 256, i1 false)
  %35 = load ptr, ptr %7, align 8, !tbaa !3
  store ptr %35, ptr %12, align 8, !tbaa !3
  br label %36

36:                                               ; preds = %47, %23
  %37 = load ptr, ptr %12, align 8, !tbaa !3
  %38 = load i8, ptr %37, align 1, !tbaa !18
  %39 = icmp ne i8 %38, 0
  br i1 %39, label %40, label %50

40:                                               ; preds = %36
  %41 = load ptr, ptr %10, align 8, !tbaa !10
  %42 = getelementptr inbounds nuw %struct.Extra_FileReader_t_, ptr %41, i32 0, i32 4
  %43 = load ptr, ptr %12, align 8, !tbaa !3
  %44 = load i8, ptr %43, align 1, !tbaa !18
  %45 = zext i8 %44 to i64
  %46 = getelementptr inbounds nuw [256 x i8], ptr %42, i64 0, i64 %45
  store i8 0, ptr %46, align 1, !tbaa !18
  br label %47

47:                                               ; preds = %40
  %48 = load ptr, ptr %12, align 8, !tbaa !3
  %49 = getelementptr inbounds nuw i8, ptr %48, i32 1
  store ptr %49, ptr %12, align 8, !tbaa !3
  br label %36, !llvm.loop !19

50:                                               ; preds = %36
  %51 = load ptr, ptr %8, align 8, !tbaa !3
  store ptr %51, ptr %12, align 8, !tbaa !3
  br label %52

52:                                               ; preds = %63, %50
  %53 = load ptr, ptr %12, align 8, !tbaa !3
  %54 = load i8, ptr %53, align 1, !tbaa !18
  %55 = icmp ne i8 %54, 0
  br i1 %55, label %56, label %66

56:                                               ; preds = %52
  %57 = load ptr, ptr %10, align 8, !tbaa !10
  %58 = getelementptr inbounds nuw %struct.Extra_FileReader_t_, ptr %57, i32 0, i32 4
  %59 = load ptr, ptr %12, align 8, !tbaa !3
  %60 = load i8, ptr %59, align 1, !tbaa !18
  %61 = zext i8 %60 to i64
  %62 = getelementptr inbounds nuw [256 x i8], ptr %58, i64 0, i64 %61
  store i8 2, ptr %62, align 1, !tbaa !18
  br label %63

63:                                               ; preds = %56
  %64 = load ptr, ptr %12, align 8, !tbaa !3
  %65 = getelementptr inbounds nuw i8, ptr %64, i32 1
  store ptr %65, ptr %12, align 8, !tbaa !3
  br label %52, !llvm.loop !21

66:                                               ; preds = %52
  %67 = load ptr, ptr %9, align 8, !tbaa !3
  store ptr %67, ptr %12, align 8, !tbaa !3
  br label %68

68:                                               ; preds = %79, %66
  %69 = load ptr, ptr %12, align 8, !tbaa !3
  %70 = load i8, ptr %69, align 1, !tbaa !18
  %71 = icmp ne i8 %70, 0
  br i1 %71, label %72, label %82

72:                                               ; preds = %68
  %73 = load ptr, ptr %10, align 8, !tbaa !10
  %74 = getelementptr inbounds nuw %struct.Extra_FileReader_t_, ptr %73, i32 0, i32 4
  %75 = load ptr, ptr %12, align 8, !tbaa !3
  %76 = load i8, ptr %75, align 1, !tbaa !18
  %77 = zext i8 %76 to i64
  %78 = getelementptr inbounds nuw [256 x i8], ptr %74, i64 0, i64 %77
  store i8 3, ptr %78, align 1, !tbaa !18
  br label %79

79:                                               ; preds = %72
  %80 = load ptr, ptr %12, align 8, !tbaa !3
  %81 = getelementptr inbounds nuw i8, ptr %80, i32 1
  store ptr %81, ptr %12, align 8, !tbaa !3
  br label %68, !llvm.loop !22

82:                                               ; preds = %68
  %83 = load ptr, ptr %11, align 8, !tbaa !8
  %84 = call i32 @fseek(ptr noundef %83, i64 noundef 0, i32 noundef 2)
  %85 = load ptr, ptr %11, align 8, !tbaa !8
  %86 = call i64 @ftell(ptr noundef %85)
  %87 = trunc i64 %86 to i32
  %88 = load ptr, ptr %10, align 8, !tbaa !10
  %89 = getelementptr inbounds nuw %struct.Extra_FileReader_t_, ptr %88, i32 0, i32 2
  store i32 %87, ptr %89, align 8, !tbaa !23
  %90 = load ptr, ptr %11, align 8, !tbaa !8
  call void @rewind(ptr noundef %90)
  %91 = call noalias ptr @malloc(i64 noundef 4194305) #10
  %92 = load ptr, ptr %10, align 8, !tbaa !10
  %93 = getelementptr inbounds nuw %struct.Extra_FileReader_t_, ptr %92, i32 0, i32 5
  store ptr %91, ptr %93, align 8, !tbaa !24
  %94 = load ptr, ptr %10, align 8, !tbaa !10
  %95 = getelementptr inbounds nuw %struct.Extra_FileReader_t_, ptr %94, i32 0, i32 6
  store i32 4194304, ptr %95, align 8, !tbaa !25
  %96 = load ptr, ptr %10, align 8, !tbaa !10
  %97 = getelementptr inbounds nuw %struct.Extra_FileReader_t_, ptr %96, i32 0, i32 5
  %98 = load ptr, ptr %97, align 8, !tbaa !24
  %99 = load ptr, ptr %10, align 8, !tbaa !10
  %100 = getelementptr inbounds nuw %struct.Extra_FileReader_t_, ptr %99, i32 0, i32 7
  store ptr %98, ptr %100, align 8, !tbaa !26
  %101 = load ptr, ptr %10, align 8, !tbaa !10
  %102 = getelementptr inbounds nuw %struct.Extra_FileReader_t_, ptr %101, i32 0, i32 2
  %103 = load i32, ptr %102, align 8, !tbaa !23
  %104 = icmp slt i32 %103, 4194304
  br i1 %104, label %105, label %109

105:                                              ; preds = %82
  %106 = load ptr, ptr %10, align 8, !tbaa !10
  %107 = getelementptr inbounds nuw %struct.Extra_FileReader_t_, ptr %106, i32 0, i32 2
  %108 = load i32, ptr %107, align 8, !tbaa !23
  br label %110

109:                                              ; preds = %82
  br label %110

110:                                              ; preds = %109, %105
  %111 = phi i32 [ %108, %105 ], [ 4194304, %109 ]
  store i32 %111, ptr %13, align 4, !tbaa !27
  %112 = load ptr, ptr %10, align 8, !tbaa !10
  %113 = getelementptr inbounds nuw %struct.Extra_FileReader_t_, ptr %112, i32 0, i32 5
  %114 = load ptr, ptr %113, align 8, !tbaa !24
  %115 = load i32, ptr %13, align 4, !tbaa !27
  %116 = sext i32 %115 to i64
  %117 = load ptr, ptr %10, align 8, !tbaa !10
  %118 = getelementptr inbounds nuw %struct.Extra_FileReader_t_, ptr %117, i32 0, i32 1
  %119 = load ptr, ptr %118, align 8, !tbaa !17
  %120 = call i64 @fread(ptr noundef %114, i64 noundef %116, i64 noundef 1, ptr noundef %119)
  %121 = trunc i64 %120 to i32
  store i32 %121, ptr %14, align 4, !tbaa !27
  %122 = load i32, ptr %13, align 4, !tbaa !27
  %123 = load ptr, ptr %10, align 8, !tbaa !10
  %124 = getelementptr inbounds nuw %struct.Extra_FileReader_t_, ptr %123, i32 0, i32 3
  store i32 %122, ptr %124, align 4, !tbaa !28
  %125 = load ptr, ptr %10, align 8, !tbaa !10
  %126 = getelementptr inbounds nuw %struct.Extra_FileReader_t_, ptr %125, i32 0, i32 5
  %127 = load ptr, ptr %126, align 8, !tbaa !24
  %128 = load i32, ptr %13, align 4, !tbaa !27
  %129 = sext i32 %128 to i64
  %130 = getelementptr inbounds i8, ptr %127, i64 %129
  %131 = load ptr, ptr %10, align 8, !tbaa !10
  %132 = getelementptr inbounds nuw %struct.Extra_FileReader_t_, ptr %131, i32 0, i32 8
  store ptr %130, ptr %132, align 8, !tbaa !29
  %133 = load ptr, ptr %10, align 8, !tbaa !10
  %134 = getelementptr inbounds nuw %struct.Extra_FileReader_t_, ptr %133, i32 0, i32 3
  %135 = load i32, ptr %134, align 4, !tbaa !28
  %136 = load ptr, ptr %10, align 8, !tbaa !10
  %137 = getelementptr inbounds nuw %struct.Extra_FileReader_t_, ptr %136, i32 0, i32 2
  %138 = load i32, ptr %137, align 8, !tbaa !23
  %139 = icmp eq i32 %135, %138
  br i1 %139, label %140, label %144

140:                                              ; preds = %110
  %141 = load ptr, ptr %10, align 8, !tbaa !10
  %142 = getelementptr inbounds nuw %struct.Extra_FileReader_t_, ptr %141, i32 0, i32 8
  %143 = load ptr, ptr %142, align 8, !tbaa !29
  br label %150

144:                                              ; preds = %110
  %145 = load ptr, ptr %10, align 8, !tbaa !10
  %146 = getelementptr inbounds nuw %struct.Extra_FileReader_t_, ptr %145, i32 0, i32 5
  %147 = load ptr, ptr %146, align 8, !tbaa !24
  %148 = getelementptr inbounds i8, ptr %147, i64 4194304
  %149 = getelementptr inbounds i8, ptr %148, i64 -4096
  br label %150

150:                                              ; preds = %144, %140
  %151 = phi ptr [ %143, %140 ], [ %149, %144 ]
  %152 = load ptr, ptr %10, align 8, !tbaa !10
  %153 = getelementptr inbounds nuw %struct.Extra_FileReader_t_, ptr %152, i32 0, i32 9
  store ptr %151, ptr %153, align 8, !tbaa !30
  %154 = call ptr @Vec_PtrAlloc(i32 noundef 100)
  %155 = load ptr, ptr %10, align 8, !tbaa !10
  %156 = getelementptr inbounds nuw %struct.Extra_FileReader_t_, ptr %155, i32 0, i32 10
  store ptr %154, ptr %156, align 8, !tbaa !31
  %157 = call ptr @Vec_IntAlloc(i32 noundef 100)
  %158 = load ptr, ptr %10, align 8, !tbaa !10
  %159 = getelementptr inbounds nuw %struct.Extra_FileReader_t_, ptr %158, i32 0, i32 11
  store ptr %157, ptr %159, align 8, !tbaa !32
  %160 = load ptr, ptr %10, align 8, !tbaa !10
  %161 = getelementptr inbounds nuw %struct.Extra_FileReader_t_, ptr %160, i32 0, i32 12
  store i32 1, ptr %161, align 8, !tbaa !33
  %162 = load ptr, ptr %10, align 8, !tbaa !10
  store ptr %162, ptr %5, align 8
  store i32 1, ptr %15, align 4
  br label %163

163:                                              ; preds = %150, %20
  call void @llvm.lifetime.end.p0(i64 4, ptr %14) #9
  call void @llvm.lifetime.end.p0(i64 4, ptr %13) #9
  call void @llvm.lifetime.end.p0(i64 8, ptr %12) #9
  call void @llvm.lifetime.end.p0(i64 8, ptr %11) #9
  call void @llvm.lifetime.end.p0(i64 8, ptr %10) #9
  %164 = load ptr, ptr %5, align 8
  ret ptr %164
}