; Function Attrs: nofree nounwind uwtable
define noalias noundef ptr @Extra_FileReaderAlloc(ptr noundef %0, ptr noundef readonly captures(none) %1, ptr noundef readonly captures(none) %2, ptr noundef readonly captures(none) %3) local_unnamed_addr #0 {
  %5 = tail call noalias ptr @fopen(ptr noundef %0, ptr noundef nonnull @.str)
  %6 = icmp eq ptr %5, null
  br i1 %6, label %7, label %9

7:                                                ; preds = %4
  %8 = tail call i32 (ptr, ...) @printf(ptr noundef nonnull dereferenceable(1) @.str.1, ptr noundef %0)
  br label %57

9:                                                ; preds = %4
  %calloc = tail call dereferenceable_or_null(344) ptr @calloc(i64 1, i64 344)
  store ptr %0, ptr %calloc, align 8, !tbaa !3
  %10 = getelementptr inbounds nuw i8, ptr %calloc, i64 8
  store ptr %5, ptr %10, align 8, !tbaa !13
  %11 = getelementptr inbounds nuw i8, ptr %calloc, i64 24
  tail call void @llvm.memset.p0.i64(ptr noundef nonnull align 8 dereferenceable(256) %11, i8 1, i64 256, i1 false)
  %12 = load i8, ptr %1, align 1, !tbaa !14
  %.not61 = icmp eq i8 %12, 0
  br i1 %.not61, label %.preheader60, label %.lr.ph

.preheader60:                                     ; preds = %.lr.ph, %9
  %13 = load i8, ptr %2, align 1, !tbaa !14
  %.not5763 = icmp eq i8 %13, 0
  br i1 %.not5763, label %.preheader, label %.lr.ph65

.lr.ph:                                           ; preds = %9, %.lr.ph
  %14 = phi i8 [ %18, %.lr.ph ], [ %12, %9 ]
  %.05162 = phi ptr [ %17, %.lr.ph ], [ %1, %9 ]
  %15 = zext i8 %14 to i64
  %16 = getelementptr inbounds nuw [256 x i8], ptr %11, i64 0, i64 %15
  store i8 0, ptr %16, align 1, !tbaa !14
  %17 = getelementptr inbounds nuw i8, ptr %.05162, i64 1
  %18 = load i8, ptr %17, align 1, !tbaa !14
  %.not = icmp eq i8 %18, 0
  br i1 %.not, label %.preheader60, label %.lr.ph, !llvm.loop !15

.preheader:                                       ; preds = %.lr.ph65, %.preheader60
  %19 = load i8, ptr %3, align 1, !tbaa !14
  %.not5866 = icmp eq i8 %19, 0
  br i1 %.not5866, label %._crit_edge, label %.lr.ph68

.lr.ph65:                                         ; preds = %.preheader60, %.lr.ph65
  %20 = phi i8 [ %24, %.lr.ph65 ], [ %13, %.preheader60 ]
  %.164 = phi ptr [ %23, %.lr.ph65 ], [ %2, %.preheader60 ]
  %21 = zext i8 %20 to i64
  %22 = getelementptr inbounds nuw [256 x i8], ptr %11, i64 0, i64 %21
  store i8 2, ptr %22, align 1, !tbaa !14
  %23 = getelementptr inbounds nuw i8, ptr %.164, i64 1
  %24 = load i8, ptr %23, align 1, !tbaa !14
  %.not57 = icmp eq i8 %24, 0
  br i1 %.not57, label %.preheader, label %.lr.ph65, !llvm.loop !17

.lr.ph68:                                         ; preds = %.preheader, %.lr.ph68
  %25 = phi i8 [ %29, %.lr.ph68 ], [ %19, %.preheader ]
  %.267 = phi ptr [ %28, %.lr.ph68 ], [ %3, %.preheader ]
  %26 = zext i8 %25 to i64
  %27 = getelementptr inbounds nuw [256 x i8], ptr %11, i64 0, i64 %26
  store i8 3, ptr %27, align 1, !tbaa !14
  %28 = getelementptr inbounds nuw i8, ptr %.267, i64 1
  %29 = load i8, ptr %28, align 1, !tbaa !14
  %.not58 = icmp eq i8 %29, 0
  br i1 %.not58, label %._crit_edge, label %.lr.ph68, !llvm.loop !18

._crit_edge:                                      ; preds = %.lr.ph68, %.preheader
  %30 = tail call i32 @fseek(ptr noundef nonnull %5, i64 noundef 0, i32 noundef 2)
  %31 = tail call i64 @ftell(ptr noundef nonnull %5)
  %32 = trunc i64 %31 to i32
  %33 = getelementptr inbounds nuw i8, ptr %calloc, i64 16
  store i32 %32, ptr %33, align 8, !tbaa !19
  tail call void @rewind(ptr noundef nonnull %5)
  %34 = tail call noalias dereferenceable_or_null(4194305) ptr @malloc(i64 noundef 4194305) #12
  %35 = getelementptr inbounds nuw i8, ptr %calloc, i64 280
  store ptr %34, ptr %35, align 8, !tbaa !20
  %36 = getelementptr inbounds nuw i8, ptr %calloc, i64 288
  store i32 4194304, ptr %36, align 8, !tbaa !21
  %37 = getelementptr inbounds nuw i8, ptr %calloc, i64 296
  store ptr %34, ptr %37, align 8, !tbaa !22
  %spec.select = tail call i32 @llvm.smin.i32(i32 %32, i32 4194304)
  %38 = sext i32 %spec.select to i64
  %39 = tail call i64 @fread(ptr noundef %34, i64 noundef %38, i64 noundef 1, ptr noundef nonnull %5)
  %40 = getelementptr inbounds nuw i8, ptr %calloc, i64 20
  store i32 %spec.select, ptr %40, align 4, !tbaa !23
  %41 = getelementptr inbounds i8, ptr %34, i64 %38
  %42 = getelementptr inbounds nuw i8, ptr %calloc, i64 304
  store ptr %41, ptr %42, align 8, !tbaa !24
  %43 = icmp slt i32 %32, 4194305
  %44 = getelementptr inbounds nuw i8, ptr %34, i64 4190208
  %spec.select59 = select i1 %43, ptr %41, ptr %44
  %45 = getelementptr inbounds nuw i8, ptr %calloc, i64 312
  store ptr %spec.select59, ptr %45, align 8, !tbaa !25
  %46 = tail call noalias dereferenceable_or_null(16) ptr @malloc(i64 noundef 16) #12
  %47 = getelementptr inbounds nuw i8, ptr %46, i64 4
  store i32 0, ptr %47, align 4, !tbaa !26
  store i32 100, ptr %46, align 8, !tbaa !28
  %48 = tail call noalias dereferenceable_or_null(800) ptr @malloc(i64 noundef 800) #12
  %49 = getelementptr inbounds nuw i8, ptr %46, i64 8
  store ptr %48, ptr %49, align 8, !tbaa !29
  %50 = getelementptr inbounds nuw i8, ptr %calloc, i64 320
  store ptr %46, ptr %50, align 8, !tbaa !30
  %51 = tail call noalias dereferenceable_or_null(16) ptr @malloc(i64 noundef 16) #12
  %52 = getelementptr inbounds nuw i8, ptr %51, i64 4
  store i32 0, ptr %52, align 4, !tbaa !31
  store i32 100, ptr %51, align 8, !tbaa !34
  %53 = tail call noalias dereferenceable_or_null(400) ptr @malloc(i64 noundef 400) #12
  %54 = getelementptr inbounds nuw i8, ptr %51, i64 8
  store ptr %53, ptr %54, align 8, !tbaa !35
  %55 = getelementptr inbounds nuw i8, ptr %calloc, i64 328
  store ptr %51, ptr %55, align 8, !tbaa !36
  %56 = getelementptr inbounds nuw i8, ptr %calloc, i64 336
  store i32 1, ptr %56, align 8, !tbaa !37
  br label %57

57:                                               ; preds = %._crit_edge, %7
  %.0 = phi ptr [ null, %7 ], [ %calloc, %._crit_edge ]
  ret ptr %.0
}